; Function Attrs: nofree norecurse nosync nounwind memory(read, inaccessiblemem: none) uwtable
define zeroext range(i8 0, 2) i8 @l_Lean_Grind_CommRing_Poly_checkNoUnitMon(ptr noundef %0) local_unnamed_addr #3 {
  br label %2

2:                                                ; preds = %24, %1
  %.09 = phi ptr [ %0, %1 ], [ %26, %24 ]
  %3 = ptrtoint ptr %.09 to i64
  %4 = and i64 %3, 1
  %.not.i = icmp eq i64 %4, 0
  br i1 %.not.i, label %8, label %5

5:                                                ; preds = %2
  %6 = lshr i64 %3, 1
  %7 = trunc i64 %6 to i32
  br label %lean_obj_tag.exit

8:                                                ; preds = %2
  %9 = getelementptr i8, ptr %.09, i64 4
  %.val.i = load i32, ptr %9, align 4
  %10 = lshr i32 %.val.i, 24
  br label %lean_obj_tag.exit

lean_obj_tag.exit:                                ; preds = %5, %8
  %.0.i = phi i32 [ %7, %5 ], [ %10, %8 ]
  %11 = icmp eq i32 %.0.i, 0
  br i1 %11, label %.thread, label %12

12:                                               ; preds = %lean_obj_tag.exit
  %13 = getelementptr inbounds nuw i8, ptr %.09, i64 16
  %14 = load ptr, ptr %13, align 8, !tbaa !6
  %15 = ptrtoint ptr %14 to i64
  %16 = and i64 %15, 1
  %.not.i11 = icmp eq i64 %16, 0
  br i1 %.not.i11, label %20, label %17

17:                                               ; preds = %12
  %18 = lshr i64 %15, 1
  %19 = trunc i64 %18 to i32
  br label %lean_obj_tag.exit14

20:                                               ; preds = %12
  %21 = getelementptr i8, ptr %14, i64 4
  %.val.i13 = load i32, ptr %21, align 4
  %22 = lshr i32 %.val.i13, 24
  br label %lean_obj_tag.exit14

lean_obj_tag.exit14:                              ; preds = %17, %20
  %.0.i12 = phi i32 [ %19, %17 ], [ %22, %20 ]
  %23 = icmp eq i32 %.0.i12, 0
  br i1 %23, label %.thread, label %24

24:                                               ; preds = %lean_obj_tag.exit14
  %25 = getelementptr inbounds nuw i8, ptr %.09, i64 24
  %26 = load ptr, ptr %25, align 8, !tbaa !6
  br label %2

.thread:                                          ; preds = %lean_obj_tag.exit14, %lean_obj_tag.exit
  %.1 = phi i8 [ 1, %lean_obj_tag.exit ], [ 0, %lean_obj_tag.exit14 ]
  ret i8 %.1
}